; ModuleID = '34/184.c'
source_filename = "34/184.c"
target datalayout = "e-m:e-p270:32:32-p271:32:32-p272:64:64-i64:64-f80:128-n8:16:32:64-S128"
target triple = "x86_64-pc-linux-gnu"

@.str = private unnamed_addr constant [3 x i8] c"%d\00", align 1
@.str.1 = private unnamed_addr constant [11 x i8] c"%d*3+1=%d\0A\00", align 1
@.str.2 = private unnamed_addr constant [9 x i8] c"%d/2=%d\0A\00", align 1
@.str.3 = private unnamed_addr constant [4 x i8] c"End\00", align 1

; Function Attrs: noinline nounwind uwtable
define dso_local void @main() #0 {
  %1 = alloca i32, align 4
  %2 = alloca i32, align 4
  %3 = call i32 (i8*, ...) @__isoc99_scanf(i8* getelementptr inbounds ([3 x i8], [3 x i8]* @.str, i64 0, i64 0), i32* %1)
  br label %4

4:                                                ; preds = %24, %0
  %5 = load i32, i32* %1, align 4
  %6 = icmp sgt i32 %5, 1
  br i1 %6, label %7, label %26

7:                                                ; preds = %4
  %8 = load i32, i32* %1, align 4
  %9 = srem i32 %8, 2
  %10 = icmp ne i32 %9, 0
  br i1 %10, label %11, label %18

11:                                               ; preds = %7
  %12 = load i32, i32* %1, align 4
  %13 = mul nsw i32 %12, 3
  %14 = add nsw i32 %13, 1
  store i32 %14, i32* %2, align 4
  %15 = load i32, i32* %1, align 4
  %16 = load i32, i32* %2, align 4
  %17 = call i32 (i8*, ...) @printf(i8* getelementptr inbounds ([11 x i8], [11 x i8]* @.str.1, i64 0, i64 0), i32 %15, i32 %16)
  br label %24

18:                                               ; preds = %7
  %19 = load i32, i32* %1, align 4
  %20 = sdiv i32 %19, 2
  store i32 %20, i32* %2, align 4
  %21 = load i32, i32* %1, align 4
  %22 = load i32, i32* %2, align 4
  %23 = call i32 (i8*, ...) @printf(i8* getelementptr inbounds ([9 x i8], [9 x i8]* @.str.2, i64 0, i64 0), i32 %21, i32 %22)
  br label %24

24:                                               ; preds = %18, %11
  %25 = load i32, i32* %2, align 4
  store i32 %25, i32* %1, align 4
  br label %4

26:                                               ; preds = %4
  %27 = call i32 (i8*, ...) @printf(i8* getelementptr inbounds ([4 x i8], [4 x i8]* @.str.3, i64 0, i64 0))
  ret void
}

declare dso_local i32 @__isoc99_scanf(i8*, ...) #1

declare dso_local i32 @printf(i8*, ...) #1


!llvm.module.flags = !{!0}
!llvm.ident = !{!1}

!0 = !{i32 1, !"wchar_size", i32 4}
!1 = !{!"clang version 10.0.0-4ubuntu1 "}
